; Function Attrs: mustprogress nounwind uwtable
define hidden void @_ZN14AsyncLogWriterC2Ev(ptr noundef nonnull align 8 dereferenceable(1184) %0) unnamed_addr #4 align 2 {
  tail call void @_ZN13NonJavaThreadC2Ev(ptr noundef nonnull align 8 dereferenceable(896) %0) #16
  store ptr getelementptr inbounds inrange(-16, 216) (i8, ptr @_ZTV14AsyncLogWriter, i64 16), ptr %0, align 8
  %2 = getelementptr inbounds i8, ptr %0, i64 896
  tail call void @_ZN14PosixSemaphoreC1Ej(ptr noundef nonnull align 8 dereferenceable(32) %2, i32 noundef 0) #16
  %3 = getelementptr inbounds i8, ptr %0, i64 928
  tail call void @_ZN15PlatformMonitorC1Ev(ptr noundef nonnull align 8 dereferenceable(88) %3) #16
  %4 = getelementptr inbounds i8, ptr %0, i64 1016
  store i8 0, ptr %4, align 8
  %5 = getelementptr inbounds i8, ptr %0, i64 1017
  store volatile i8 0, ptr %5, align 1
  %6 = getelementptr inbounds i8, ptr %0, i64 1024
  tail call void @llvm.memset.p0.i64(ptr noundef nonnull align 8 dereferenceable(140) %6, i8 0, i64 140, i1 false)
  %7 = load i64, ptr @AsyncLogBufferSize, align 8
  %8 = lshr i64 %7, 1
  %9 = tail call noundef ptr @_Z12AllocateHeapm8MEMFLAGSN17AllocFailStrategy13AllocFailEnumE(i64 noundef 24, i8 noundef zeroext 17, i32 noundef 0) #16
  %10 = getelementptr inbounds i8, ptr %9, i64 8
  store i64 0, ptr %10, align 8
  %11 = getelementptr inbounds i8, ptr %9, i64 16
  store i64 %8, ptr %11, align 8
  %12 = tail call noundef ptr @_Z12AllocateHeapm8MEMFLAGSN17AllocFailStrategy13AllocFailEnumE(i64 noundef %8, i8 noundef zeroext 17, i32 noundef 0) #16
  store ptr %12, ptr %9, align 8
  %13 = ptrtoint ptr %12 to i64
  %14 = add i64 %13, 7
  %15 = and i64 %14, -8
  %16 = sub i64 %15, %13
  store i64 %16, ptr %10, align 8
  %17 = getelementptr inbounds i8, ptr %0, i64 1168
  store ptr %9, ptr %17, align 8
  %18 = tail call noundef ptr @_Z12AllocateHeapm8MEMFLAGSN17AllocFailStrategy13AllocFailEnumE(i64 noundef 24, i8 noundef zeroext 17, i32 noundef 0) #16
  %19 = getelementptr inbounds i8, ptr %18, i64 8
  store i64 0, ptr %19, align 8
  %20 = getelementptr inbounds i8, ptr %18, i64 16
  store i64 %8, ptr %20, align 8
  %21 = tail call noundef ptr @_Z12AllocateHeapm8MEMFLAGSN17AllocFailStrategy13AllocFailEnumE(i64 noundef %8, i8 noundef zeroext 17, i32 noundef 0) #16
  store ptr %21, ptr %18, align 8
  %22 = ptrtoint ptr %21 to i64
  %23 = add i64 %22, 7
  %24 = and i64 %23, -8
  %25 = sub i64 %24, %22
  store i64 %25, ptr %19, align 8
  %26 = getelementptr inbounds i8, ptr %0, i64 1176
  store ptr %18, ptr %26, align 8
  %27 = load volatile ptr, ptr getelementptr inbounds (i8, ptr @_ZN16LogTagSetMappingILN6LogTag4typeE76ELS1_0ELS1_0ELS1_0ELS1_0ELS1_0EE7_tagsetE, i64 64), align 8
  %.not = icmp eq ptr %27, null
  br i1 %.not, label %30, label %28

28:                                               ; preds = %1
  %29 = and i64 %7, -2
  tail call void (ptr, ...) @_ZN7LogImplILN6LogTag4typeE76ELS1_0ELS1_0ELS1_0ELS1_0ELS1_0EE5writeILN8LogLevel4typeE3EEEvPKcz(ptr noundef nonnull @.str.5, i64 noundef %29)
  br label %30

30:                                               ; preds = %1, %28
  %31 = tail call noundef zeroext i1 @_ZN2os13create_threadEP6ThreadNS_10ThreadTypeEm(ptr noundef nonnull %0, i32 noundef 5, i64 noundef 0) #16
  br i1 %31, label %32, label %33

32:                                               ; preds = %30
  store volatile i8 1, ptr %5, align 1
  br label %36

33:                                               ; preds = %30
  %34 = load volatile ptr, ptr getelementptr inbounds (i8, ptr @_ZN16LogTagSetMappingILN6LogTag4typeE76ELS1_159ELS1_0ELS1_0ELS1_0ELS1_0EE7_tagsetE, i64 72), align 8
  %.not9 = icmp eq ptr %34, null
  br i1 %.not9, label %36, label %35

35:                                               ; preds = %33
  tail call void (ptr, ...) @_ZN7LogImplILN6LogTag4typeE76ELS1_159ELS1_0ELS1_0ELS1_0ELS1_0EE5writeILN8LogLevel4typeE4EEEvPKcz(ptr noundef nonnull @.str.6)
  br label %36

36:                                               ; preds = %35, %33, %32
  ret void
}